target datalayout = "e-m:e-p270:32:32-p271:32:32-p272:64:64-i64:64-i128:128-f80:128-n8:16:32:64-S128"
target triple = "x86_64-pc-linux-gnu"

%"class.llvm::SmallVectorBase" = type { ptr, i32, i32 }
%"class.llvm::SmallPtrSetImplBase.base" = type <{ ptr, ptr, i32, i32, i32 }>
%"class.llvm::ilist_iterator_w_bits" = type <{ ptr, i8, i8, [6 x i8] }>
%"class.llvm::IRBuilderBase" = type { %"class.llvm::SmallVector.170", ptr, %"class.llvm::ilist_iterator_w_bits", ptr, ptr, ptr, ptr, %"class.llvm::FastMathFlags", i8, i8, i8, %"class.llvm::ArrayRef.175" }
%"class.llvm::SmallVector.170" = type { %"class.llvm::SmallVectorImpl.171", %"struct.llvm::SmallVectorStorage.174" }
%"class.llvm::SmallVectorImpl.171" = type { %"class.llvm::SmallVectorTemplateBase.172" }
%"class.llvm::SmallVectorTemplateBase.172" = type { %"class.llvm::SmallVectorTemplateCommon.173" }
%"class.llvm::SmallVectorTemplateCommon.173" = type { %"class.llvm::SmallVectorBase" }
%"struct.llvm::SmallVectorStorage.174" = type { [32 x i8] }
%"class.llvm::FastMathFlags" = type { i32 }
%"class.llvm::ArrayRef.175" = type { ptr, i64 }
%"class.llvm::TrackingVH" = type { %"class.llvm::WeakTrackingVH" }
%"class.llvm::WeakTrackingVH" = type { %"class.llvm::ValueHandleBase" }
%"class.llvm::ValueHandleBase" = type { %"class.llvm::PointerIntPair.473", ptr, ptr }
%"class.llvm::PointerIntPair.473" = type { %"struct.llvm::detail::PunnedPointer.474" }
%"struct.llvm::detail::PunnedPointer.474" = type { [8 x i8] }
%"class.llvm::RecurrenceDescriptor" = type <{ ptr, %"class.llvm::TrackingVH", ptr, i32, %"class.llvm::FastMathFlags", ptr, ptr, i8, i8, [6 x i8], %"class.llvm::SmallPtrSet.475", i32, [4 x i8] }>
%"class.llvm::SmallPtrSet.475" = type { %"class.llvm::SmallPtrSetImpl.base.477", [8 x ptr] }
%"class.llvm::SmallPtrSetImpl.base.477" = type { %"class.llvm::SmallPtrSetImplBase.base" }
%"class.llvm::IRBuilderBase::FastMathFlagGuard" = type <{ ptr, %"class.llvm::FastMathFlags", [4 x i8], ptr, i8, i8, i8, [5 x i8] }>

; Function Attrs: mustprogress nounwind uwtable
define linkonce_odr hidden void @_ZN4llvm13IRBuilderBase17FastMathFlagGuardD2Ev(ptr noundef nonnull align 8 dereferenceable(27) %0) unnamed_addr #0 comdat align 2 {
  %2 = alloca ptr, align 8
  store ptr %0, ptr %2, align 8
  %3 = load ptr, ptr %2, align 8
  %4 = getelementptr inbounds nuw %"class.llvm::IRBuilderBase::FastMathFlagGuard", ptr %3, i32 0, i32 1
  %5 = getelementptr inbounds nuw %"class.llvm::IRBuilderBase::FastMathFlagGuard", ptr %3, i32 0, i32 0
  %6 = load ptr, ptr %5, align 8
  %7 = getelementptr inbounds nuw %"class.llvm::IRBuilderBase", ptr %6, i32 0, i32 7
  call void @llvm.memcpy.p0.p0.i64(ptr align 8 %7, ptr align 8 %4, i64 4, i1 false)
  %8 = getelementptr inbounds nuw %"class.llvm::IRBuilderBase::FastMathFlagGuard", ptr %3, i32 0, i32 3
  %9 = load ptr, ptr %8, align 8
  %10 = getelementptr inbounds nuw %"class.llvm::IRBuilderBase::FastMathFlagGuard", ptr %3, i32 0, i32 0
  %11 = load ptr, ptr %10, align 8
  %12 = getelementptr inbounds nuw %"class.llvm::IRBuilderBase", ptr %11, i32 0, i32 6
  store ptr %9, ptr %12, align 8
  %13 = getelementptr inbounds nuw %"class.llvm::IRBuilderBase::FastMathFlagGuard", ptr %3, i32 0, i32 4
  %14 = load i8, ptr %13, align 8
  %15 = trunc i8 %14 to i1
  %16 = getelementptr inbounds nuw %"class.llvm::IRBuilderBase::FastMathFlagGuard", ptr %3, i32 0, i32 0
  %17 = load ptr, ptr %16, align 8
  %18 = getelementptr inbounds nuw %"class.llvm::IRBuilderBase", ptr %17, i32 0, i32 8
  %19 = zext i1 %15 to i8
  store i8 %19, ptr %18, align 4
  %20 = getelementptr inbounds nuw %"class.llvm::IRBuilderBase::FastMathFlagGuard", ptr %3, i32 0, i32 5
  %21 = load i8, ptr %20, align 1
  %22 = getelementptr inbounds nuw %"class.llvm::IRBuilderBase::FastMathFlagGuard", ptr %3, i32 0, i32 0
  %23 = load ptr, ptr %22, align 8
  %24 = getelementptr inbounds nuw %"class.llvm::IRBuilderBase", ptr %23, i32 0, i32 9
  store i8 %21, ptr %24, align 1
  %25 = getelementptr inbounds nuw %"class.llvm::IRBuilderBase::FastMathFlagGuard", ptr %3, i32 0, i32 6
  %26 = load i8, ptr %25, align 2
  %27 = getelementptr inbounds nuw %"class.llvm::IRBuilderBase::FastMathFlagGuard", ptr %3, i32 0, i32 0
  %28 = load ptr, ptr %27, align 8
  %29 = getelementptr inbounds nuw %"class.llvm::IRBuilderBase", ptr %28, i32 0, i32 10
  store i8 %26, ptr %29, align 2
  ret void
}

; Function Attrs: mustprogress nounwind uwtable
define linkonce_odr hidden noundef zeroext i1 @_ZN4llvm20RecurrenceDescriptor21isAnyOfRecurrenceKindENS_9RecurKindE(i32 noundef %0) #0 comdat align 2 {
  %2 = alloca i32, align 4
  store i32 %0, ptr %2, align 4
  %3 = load i32, ptr %2, align 4
  %4 = icmp eq i32 %3, 17
  br i1 %4, label %8, label %5

5:                                                ; preds = %1
  %6 = load i32, ptr %2, align 4
  %7 = icmp eq i32 %6, 18
  br label %8

8:                                                ; preds = %5, %1
  %9 = phi i1 [ true, %1 ], [ %7, %5 ]
  ret i1 %9
}

; Function Attrs: mustprogress nounwind uwtable
define linkonce_odr hidden noundef i32 @_ZNK4llvm20RecurrenceDescriptor17getRecurrenceKindEv(ptr noundef nonnull align 8 dereferenceable(172) %0) #0 comdat align 2 {
  %2 = alloca ptr, align 8
  store ptr %0, ptr %2, align 8
  %3 = load ptr, ptr %2, align 8
  %4 = getelementptr inbounds nuw %"class.llvm::RecurrenceDescriptor", ptr %3, i32 0, i32 3
  %5 = load i32, ptr %4, align 8
  ret i32 %5
}

; Function Attrs: mustprogress nounwind uwtable
define linkonce_odr hidden void @_ZN4llvm13IRBuilderBase16setFastMathFlagsENS_13FastMathFlagsE(ptr noundef nonnull align 8 dereferenceable(128) %0, i32 %1) #0 comdat align 2 {
  %3 = alloca %"class.llvm::FastMathFlags", align 4
  %4 = alloca ptr, align 8
  %5 = getelementptr inbounds nuw %"class.llvm::FastMathFlags", ptr %3, i32 0, i32 0
  store i32 %1, ptr %5, align 4
  store ptr %0, ptr %4, align 8
  %6 = load ptr, ptr %4, align 8
  %7 = getelementptr inbounds nuw %"class.llvm::IRBuilderBase", ptr %6, i32 0, i32 7
  call void @llvm.memcpy.p0.p0.i64(ptr align 8 %7, ptr align 4 %3, i64 4, i1 false)
  ret void
}

; Function Attrs: mustprogress nounwind uwtable
define linkonce_odr hidden i32 @_ZNK4llvm20RecurrenceDescriptor16getFastMathFlagsEv(ptr noundef nonnull align 8 dereferenceable(172) %0) #0 comdat align 2 {
  %2 = alloca %"class.llvm::FastMathFlags", align 4
  %3 = alloca ptr, align 8
  store ptr %0, ptr %3, align 8
  %4 = load ptr, ptr %3, align 8
  %5 = getelementptr inbounds nuw %"class.llvm::RecurrenceDescriptor", ptr %4, i32 0, i32 4
  call void @llvm.memcpy.p0.p0.i64(ptr align 4 %2, ptr align 4 %5, i64 4, i1 false)
  %6 = getelementptr inbounds nuw %"class.llvm::FastMathFlags", ptr %2, i32 0, i32 0
  %7 = load i32, ptr %6, align 4
  ret i32 %7
}

; Function Attrs: mustprogress nounwind uwtable
define linkonce_odr hidden void @_ZN4llvm13IRBuilderBase17FastMathFlagGuardC2ERS0_(ptr noundef nonnull align 8 dereferenceable(27) %0, ptr noundef nonnull align 8 dereferenceable(128) %1) unnamed_addr #0 comdat align 2 {
  %3 = alloca ptr, align 8
  %4 = alloca ptr, align 8
  store ptr %0, ptr %3, align 8
  store ptr %1, ptr %4, align 8
  %5 = load ptr, ptr %3, align 8
  %6 = getelementptr inbounds nuw %"class.llvm::IRBuilderBase::FastMathFlagGuard", ptr %5, i32 0, i32 0
  %7 = load ptr, ptr %4, align 8
  store ptr %7, ptr %6, align 8
  %8 = getelementptr inbounds nuw %"class.llvm::IRBuilderBase::FastMathFlagGuard", ptr %5, i32 0, i32 1
  %9 = load ptr, ptr %4, align 8
  %10 = getelementptr inbounds nuw %"class.llvm::IRBuilderBase", ptr %9, i32 0, i32 7
  call void @llvm.memcpy.p0.p0.i64(ptr align 8 %8, ptr align 8 %10, i64 4, i1 false)
  %11 = getelementptr inbounds nuw %"class.llvm::IRBuilderBase::FastMathFlagGuard", ptr %5, i32 0, i32 3
  %12 = load ptr, ptr %4, align 8
  %13 = getelementptr inbounds nuw %"class.llvm::IRBuilderBase", ptr %12, i32 0, i32 6
  %14 = load ptr, ptr %13, align 8
  store ptr %14, ptr %11, align 8
  %15 = getelementptr inbounds nuw %"class.llvm::IRBuilderBase::FastMathFlagGuard", ptr %5, i32 0, i32 4
  %16 = load ptr, ptr %4, align 8
  %17 = getelementptr inbounds nuw %"class.llvm::IRBuilderBase", ptr %16, i32 0, i32 8
  %18 = load i8, ptr %17, align 4
  %19 = trunc i8 %18 to i1
  %20 = zext i1 %19 to i8
  store i8 %20, ptr %15, align 8
  %21 = getelementptr inbounds nuw %"class.llvm::IRBuilderBase::FastMathFlagGuard", ptr %5, i32 0, i32 5
  %22 = load ptr, ptr %4, align 8
  %23 = getelementptr inbounds nuw %"class.llvm::IRBuilderBase", ptr %22, i32 0, i32 9
  %24 = load i8, ptr %23, align 1
  store i8 %24, ptr %21, align 1
  %25 = getelementptr inbounds nuw %"class.llvm::IRBuilderBase::FastMathFlagGuard", ptr %5, i32 0, i32 6
  %26 = load ptr, ptr %4, align 8
  %27 = getelementptr inbounds nuw %"class.llvm::IRBuilderBase", ptr %26, i32 0, i32 10
  %28 = load i8, ptr %27, align 2
  store i8 %28, ptr %25, align 2
  ret void
}

; Function Attrs: mustprogress nounwind uwtable
define dso_local noundef ptr @_ZN4llvm15createReductionERNS_13IRBuilderBaseERKNS_20RecurrenceDescriptorEPNS_5ValueEPNS_7PHINodeE(ptr noundef nonnull align 8 dereferenceable(128) %0, ptr noundef nonnull align 8 dereferenceable(172) %1, ptr noundef %2, ptr noundef %3) #0 {
  %5 = alloca ptr, align 8
  %6 = alloca ptr, align 8
  %7 = alloca ptr, align 8
  %8 = alloca ptr, align 8
  %9 = alloca ptr, align 8
  %10 = alloca %"class.llvm::IRBuilderBase::FastMathFlagGuard", align 8
  %11 = alloca %"class.llvm::FastMathFlags", align 4
  %12 = alloca i32, align 4
  %13 = alloca i32, align 4
  store ptr %0, ptr %6, align 8
  store ptr %1, ptr %7, align 8
  store ptr %2, ptr %8, align 8
  store ptr %3, ptr %9, align 8
  %14 = load ptr, ptr %6, align 8
  call void @_ZN4llvm13IRBuilderBase17FastMathFlagGuardC2ERS0_(ptr noundef nonnull align 8 dereferenceable(27) %10, ptr noundef nonnull align 8 dereferenceable(128) %14)
  %15 = load ptr, ptr %6, align 8
  %16 = load ptr, ptr %7, align 8
  %17 = call i32 @_ZNK4llvm20RecurrenceDescriptor16getFastMathFlagsEv(ptr noundef nonnull align 8 dereferenceable(172) %16)
  %18 = getelementptr inbounds nuw %"class.llvm::FastMathFlags", ptr %11, i32 0, i32 0
  store i32 %17, ptr %18, align 4
  %19 = getelementptr inbounds nuw %"class.llvm::FastMathFlags", ptr %11, i32 0, i32 0
  %20 = load i32, ptr %19, align 4
  call void @_ZN4llvm13IRBuilderBase16setFastMathFlagsENS_13FastMathFlagsE(ptr noundef nonnull align 8 dereferenceable(128) %15, i32 %20)
  %21 = load ptr, ptr %7, align 8
  %22 = call noundef i32 @_ZNK4llvm20RecurrenceDescriptor17getRecurrenceKindEv(ptr noundef nonnull align 8 dereferenceable(172) %21)
  store i32 %22, ptr %12, align 4
  %23 = load i32, ptr %12, align 4
  %24 = call noundef zeroext i1 @_ZN4llvm20RecurrenceDescriptor21isAnyOfRecurrenceKindENS_9RecurKindE(i32 noundef %23)
  br i1 %24, label %25, label %31

25:                                               ; preds = %4
  %26 = load ptr, ptr %6, align 8
  %27 = load ptr, ptr %8, align 8
  %28 = load ptr, ptr %7, align 8
  %29 = load ptr, ptr %9, align 8
  %30 = call noundef ptr @_ZN4llvm20createAnyOfReductionERNS_13IRBuilderBaseEPNS_5ValueERKNS_20RecurrenceDescriptorEPNS_7PHINodeE(ptr noundef nonnull align 8 dereferenceable(128) %26, ptr noundef %27, ptr noundef nonnull align 8 dereferenceable(172) %28, ptr noundef %29)
  store ptr %30, ptr %5, align 8
  store i32 1, ptr %13, align 4
  br label %36

31:                                               ; preds = %4
  %32 = load ptr, ptr %6, align 8
  %33 = load ptr, ptr %8, align 8
  %34 = load i32, ptr %12, align 4
  %35 = call noundef ptr @_ZN4llvm21createSimpleReductionERNS_13IRBuilderBaseEPNS_5ValueENS_9RecurKindE(ptr noundef nonnull align 8 dereferenceable(128) %32, ptr noundef %33, i32 noundef %34)
  store ptr %35, ptr %5, align 8
  store i32 1, ptr %13, align 4
  br label %36

36:                                               ; preds = %31, %25
  call void @_ZN4llvm13IRBuilderBase17FastMathFlagGuardD2Ev(ptr noundef nonnull align 8 dereferenceable(27) %10) #12
  %37 = load ptr, ptr %5, align 8
  ret ptr %37
}