; Function Attrs: mustprogress nounwind uwtable
define dso_local noundef ptr @_ZN4llvm15createReductionERNS_13IRBuilderBaseERKNS_20RecurrenceDescriptorEPNS_5ValueEPNS_7PHINodeE(ptr noundef nonnull align 8 dereferenceable(128) %0, ptr nocapture noundef nonnull readonly align 8 dereferenceable(172) %1, ptr noundef %2, ptr noundef %3) local_unnamed_addr #0 {
  %5 = getelementptr inbounds nuw i8, ptr %0, i64 104
  %6 = load i32, ptr %5, align 8
  %7 = getelementptr inbounds nuw i8, ptr %0, i64 96
  %8 = load ptr, ptr %7, align 8
  %9 = getelementptr inbounds nuw i8, ptr %0, i64 108
  %10 = load i8, ptr %9, align 4
  %11 = getelementptr inbounds nuw i8, ptr %0, i64 109
  %12 = load i8, ptr %11, align 1
  %13 = getelementptr inbounds nuw i8, ptr %0, i64 110
  %14 = load i8, ptr %13, align 2
  %15 = getelementptr inbounds nuw i8, ptr %1, i64 44
  %.sroa.0.0.copyload.i = load i32, ptr %15, align 4
  store i32 %.sroa.0.0.copyload.i, ptr %5, align 8
  %16 = getelementptr inbounds nuw i8, ptr %1, i64 40
  %17 = load i32, ptr %16, align 8
  %18 = add i32 %17, -17
  %19 = icmp ult i32 %18, 2
  br i1 %19, label %20, label %22

20:                                               ; preds = %4
  %21 = tail call noundef ptr @_ZN4llvm20createAnyOfReductionERNS_13IRBuilderBaseEPNS_5ValueERKNS_20RecurrenceDescriptorEPNS_7PHINodeE(ptr noundef nonnull align 8 dereferenceable(128) %0, ptr noundef %2, ptr noundef nonnull align 8 dereferenceable(172) %1, ptr noundef %3)
  br label %24

22:                                               ; preds = %4
  %23 = tail call noundef ptr @_ZN4llvm21createSimpleReductionERNS_13IRBuilderBaseEPNS_5ValueENS_9RecurKindE(ptr noundef nonnull align 8 dereferenceable(128) %0, ptr noundef %2, i32 noundef %17)
  br label %24

24:                                               ; preds = %22, %20
  %.0 = phi ptr [ %21, %20 ], [ %23, %22 ]
  %25 = and i8 %10, 1
  store i32 %6, ptr %5, align 8
  store ptr %8, ptr %7, align 8
  store i8 %25, ptr %9, align 4
  store i8 %12, ptr %11, align 1
  store i8 %14, ptr %13, align 2
  ret ptr %.0
}